Certificate:
    Data:
        Version: 3 (0x2)
        Serial Number: 1 (0x1)
    Signature Algorithm: sha256WithRSAEncryption
        Issuer: C=TW, ST=Taipei, L=SanFrancisco, O=NCTU, OU=MyOrganizationalUnit, CN=archiso/name=EasyRSA/emailAddress=jack@yzwang.bsdwhiz.xyz
        Validity
            Not Before: May 31 22:29:19 2016 GMT
            Not After : May 29 22:29:19 2026 GMT
        Subject: C=TW, ST=Taipei, L=NCTU, O=Fort-Funston, OU=MyOrganizationalUnit, CN=archiso/name=EasyRSA/emailAddress=jack@yzwang.bsdwhiz.xyz
        Subject Public Key Info:
            Public Key Algorithm: rsaEncryption
                Public-Key: (2048 bit)
                Modulus:
                    00:b9:f4:7e:25:f6:06:0a:cf:8d:15:c5:94:9b:7e:
                    f0:f2:aa:84:9f:f0:e0:35:cb:fa:a8:13:14:70:3d:
                    b2:6e:9a:1e:14:b5:23:04:aa:98:7a:a9:74:11:67:
                    f3:22:5d:d3:6d:3d:dd:fc:7c:23:a1:73:08:e9:12:
                    b6:d7:84:39:04:11:9a:ca:01:eb:a2:c4:17:55:35:
                    0f:5a:01:9b:9b:4b:67:45:8f:60:4c:09:b0:35:fb:
                    ee:af:9b:a2:18:ce:c0:ce:9a:63:e5:8c:12:58:da:
                    9f:88:91:86:50:50:71:26:58:79:a8:90:7e:c5:32:
                    0e:50:f5:d4:ee:a0:88:f6:8e:9f:f1:03:5c:0d:76:
                    f1:c9:72:d8:16:b5:bc:25:c8:8c:78:39:48:e2:bc:
                    f7:7a:ed:3b:f6:e9:cd:26:6d:7c:87:77:1c:37:14:
                    b4:17:b5:cf:0d:1c:a2:f4:7f:35:44:05:17:3f:fb:
                    d5:0c:e7:e3:c5:3e:fb:d5:39:6f:3b:10:43:85:ec:
                    0e:98:76:cf:62:cb:3e:a7:5c:10:30:52:c1:b4:a2:
                    68:79:0e:62:43:e0:5b:c3:f1:27:71:9c:e9:68:56:
                    de:f7:c7:b6:20:4f:e2:0d:bd:8a:ff:49:d7:1f:d6:
                    44:b8:2f:68:28:36:a9:1b:bf:f0:47:99:78:e9:fa:
                    c4:17
                Exponent: 65537 (0x10001)
        X509v3 extensions:
            X509v3 Basic Constraints: 
                CA:FALSE
            Netscape Cert Type: 
                SSL Server
            Netscape Comment: 
                Easy-RSA Generated Server Certificate
            X509v3 Subject Key Identifier: 
                FA:CF:D1:93:E9:EE:77:07:6A:2E:E2:4C:2C:F6:C1:E2:69:9B:E6:16
            X509v3 Authority Key Identifier: 
                keyid:FB:46:63:D9:18:89:97:CA:47:C7:3D:2E:9D:81:C8:B6:3B:1E:82:82
                DirName:/C=TW/ST=Taipei/L=SanFrancisco/O=NCTU/OU=MyOrganizationalUnit/CN=archiso/name=EasyRSA/emailAddress=jack@yzwang.bsdwhiz.xyz
                serial:E3:6E:E9:5F:18:7D:3C:11

            X509v3 Extended Key Usage: 
                TLS Web Server Authentication
            X509v3 Key Usage: 
                Digital Signature, Key Encipherment
    Signature Algorithm: sha256WithRSAEncryption
         31:7b:7a:6d:1b:eb:b5:6e:fa:e2:28:c7:98:b8:cb:3f:07:47:
         97:35:1f:94:8f:21:d5:10:9b:99:84:b6:95:d8:3b:a3:36:d3:
         3f:6c:5e:de:e3:ad:ab:94:44:36:92:42:5b:55:43:78:1c:ac:
         4c:44:4e:a3:86:07:11:0c:8a:0d:df:1c:db:24:a7:24:a6:d5:
         b9:b4:ff:ef:2c:d4:15:1c:90:bc:0f:53:14:30:c9:22:22:82:
         2c:62:2c:a3:dc:03:ca:cf:a4:6d:e0:64:ba:df:3b:8d:91:9e:
         35:9a:6e:c1:d7:2e:f6:7c:09:9c:e4:96:d1:5d:77:31:17:84:
         ec:94:f7:af:c0:8e:12:b3:d7:95:71:3f:74:10:52:8f:1b:86:
         6c:ca:5b:4f:d9:78:bd:92:33:c7:e9:79:9a:26:1d:21:19:0e:
         75:b1:0b:b3:8c:e0:db:c8:5e:4e:15:fe:5d:0f:3b:61:85:0d:
         8c:a8:f3:fa:59:ab:fa:6d:de:e2:0d:f5:ac:2e:bf:0f:f4:36:
         50:83:8c:ae:6d:09:08:99:a2:77:29:3e:af:94:34:e9:61:93:
         24:6f:8c:c7:ba:1c:e8:63:1d:b9:25:5b:10:0a:1a:43:b2:e3:
         c9:92:c2:98:19:12:ec:56:00:33:5e:7c:be:b8:d0:9b:bb:05:
         c4:c3:de:74
-----BEGIN CERTIFICATE-----
MIIFXTCCBEWgAwIBAgIBATANBgkqhkiG9w0BAQsFADCBrzELMAkGA1UEBhMCVFcx
DzANBgNVBAgTBlRhaXBlaTEVMBMGA1UEBxMMU2FuRnJhbmNpc2NvMQ0wCwYDVQQK
EwROQ1RVMR0wGwYDVQQLExRNeU9yZ2FuaXphdGlvbmFsVW5pdDEQMA4GA1UEAxMH
YXJjaGlzbzEQMA4GA1UEKRMHRWFzeVJTQTEmMCQGCSqGSIb3DQEJARYXamFja0B5
endhbmcuYnNkd2hpei54eXowHhcNMTYwNTMxMjIyOTE5WhcNMjYwNTI5MjIyOTE5
WjCBrzELMAkGA1UEBhMCVFcxDzANBgNVBAgTBlRhaXBlaTENMAsGA1UEBxMETkNU
VTEVMBMGA1UEChMMRm9ydC1GdW5zdG9uMR0wGwYDVQQLExRNeU9yZ2FuaXphdGlv
bmFsVW5pdDEQMA4GA1UEAxMHYXJjaGlzbzEQMA4GA1UEKRMHRWFzeVJTQTEmMCQG
CSqGSIb3DQEJARYXamFja0B5endhbmcuYnNkd2hpei54eXowggEiMA0GCSqGSIb3
DQEBAQUAA4IBDwAwggEKAoIBAQC59H4l9gYKz40VxZSbfvDyqoSf8OA1y/qoExRw
PbJumh4UtSMEqph6qXQRZ/MiXdNtPd38fCOhcwjpErbXhDkEEZrKAeuixBdVNQ9a
AZubS2dFj2BMCbA1++6vm6IYzsDOmmPljBJY2p+IkYZQUHEmWHmokH7FMg5Q9dTu
oIj2jp/xA1wNdvHJctgWtbwlyIx4OUjivPd67Tv26c0mbXyHdxw3FLQXtc8NHKL0
fzVEBRc/+9UM5+PFPvvVOW87EEOF7A6Yds9iyz6nXBAwUsG0omh5DmJD4FvD8Sdx
nOloVt73x7YgT+INvYr/Sdcf1kS4L2goNqkbv/BHmXjp+sQXAgMBAAGjggGAMIIB
fDAJBgNVHRMEAjAAMBEGCWCGSAGG+EIBAQQEAwIGQDA0BglghkgBhvhCAQ0EJxYl
RWFzeS1SU0EgR2VuZXJhdGVkIFNlcnZlciBDZXJ0aWZpY2F0ZTAdBgNVHQ4EFgQU
+s/Rk+nudwdqLuJMLPbB4mmb5hYwgeQGA1UdIwSB3DCB2YAU+0Zj2RiJl8pHxz0u
nYHItjsegoKhgbWkgbIwga8xCzAJBgNVBAYTAlRXMQ8wDQYDVQQIEwZUYWlwZWkx
FTATBgNVBAcTDFNhbkZyYW5jaXNjbzENMAsGA1UEChMETkNUVTEdMBsGA1UECxMU
TXlPcmdhbml6YXRpb25hbFVuaXQxEDAOBgNVBAMTB2FyY2hpc28xEDAOBgNVBCkT
B0Vhc3lSU0ExJjAkBgkqhkiG9w0BCQEWF2phY2tAeXp3YW5nLmJzZHdoaXoueHl6
ggkA427pXxh9PBEwEwYDVR0lBAwwCgYIKwYBBQUHAwEwCwYDVR0PBAQDAgWgMA0G
CSqGSIb3DQEBCwUAA4IBAQAxe3ptG+u1bvriKMeYuMs/B0eXNR+UjyHVEJuZhLaV
2DujNtM/bF7e462rlEQ2kkJbVUN4HKxMRE6jhgcRDIoN3xzbJKckptW5tP/vLNQV
HJC8D1MUMMkiIoIsYiyj3APKz6Rt4GS63zuNkZ41mm7B1y72fAmc5JbRXXcxF4Ts
lPevwI4Ss9eVcT90EFKPG4ZsyltP2Xi9kjPH6XmaJh0hGQ51sQuzjODbyF5OFf5d
DzthhQ2MqPP6Wav6bd7iDfWsLr8P9DZQg4yubQkImaJ3KT6vlDTpYZMkb4zHuhzo
Yx25JVsQChpDsuPJksKYGRLsVgAzXny+uNCbuwXEw950
-----END CERTIFICATE-----
