Certificate:
    Data:
        Version: 3 (0x2)
        Serial Number: 2 (0x2)
    Signature Algorithm: sha256WithRSAEncryption
        Issuer: C=TW, ST=Taipei, L=SanFrancisco, O=NCTU, OU=MyOrganizationalUnit, CN=archiso/name=EasyRSA/emailAddress=jack@yzwang.bsdwhiz.xyz
        Validity
            Not Before: May 31 22:30:37 2016 GMT
            Not After : May 29 22:30:37 2026 GMT
        Subject: C=TW, ST=Taipei, L=SanFrancisco, O=NCTU, OU=MyOrganizationalUnit, CN=client/name=EasyRSA/emailAddress=jack@yzwang.bsdwhiz.xyz
        Subject Public Key Info:
            Public Key Algorithm: rsaEncryption
                Public-Key: (2048 bit)
                Modulus:
                    00:97:17:48:a5:54:c2:2a:76:ad:f2:f0:08:74:02:
                    ee:c4:08:9b:63:42:bf:2e:84:37:8f:02:47:52:9e:
                    5b:95:db:a3:e4:35:d2:a4:04:ac:d2:57:0f:bd:22:
                    30:a0:b1:11:c1:6a:f7:b7:0d:d0:b1:a9:6c:19:ed:
                    ae:39:f1:12:60:27:10:b2:1b:e4:3c:c7:e6:5c:06:
                    aa:3d:5f:37:86:81:51:6f:da:39:3b:3f:76:cc:86:
                    9d:d8:dc:e0:92:fe:25:59:91:a3:77:39:e0:df:5d:
                    7a:15:78:f9:eb:73:aa:6c:bf:69:d2:0d:71:74:0a:
                    f3:94:1d:42:be:fe:75:79:33:0e:22:f7:bc:b1:72:
                    69:2f:4c:af:58:01:04:ac:62:39:bc:29:ef:9b:30:
                    b5:c9:4a:3e:aa:ee:62:0a:d6:1b:9f:06:c3:f0:a4:
                    a4:b6:da:89:db:92:ab:9b:40:ca:ba:61:5f:53:d6:
                    48:4a:b0:a4:74:79:3e:a1:75:0b:65:d9:ea:ea:d0:
                    d9:93:0f:ed:a7:ea:a1:8e:3a:aa:74:2c:4e:b9:d1:
                    ff:fb:7f:0a:6e:e2:f2:7e:2f:b9:65:11:39:94:ac:
                    fe:f5:9d:bb:dc:9f:fb:5e:e7:3c:23:29:43:46:12:
                    58:f3:fa:99:34:d8:60:4c:69:c5:c0:4c:e5:7d:e3:
                    1f:c5
                Exponent: 65537 (0x10001)
        X509v3 extensions:
            X509v3 Basic Constraints: 
                CA:FALSE
            Netscape Comment: 
                Easy-RSA Generated Certificate
            X509v3 Subject Key Identifier: 
                88:CD:D8:72:D3:4A:DB:47:F1:4E:3E:34:CF:DE:92:FD:10:56:4A:E7
            X509v3 Authority Key Identifier: 
                keyid:FB:46:63:D9:18:89:97:CA:47:C7:3D:2E:9D:81:C8:B6:3B:1E:82:82
                DirName:/C=TW/ST=Taipei/L=SanFrancisco/O=NCTU/OU=MyOrganizationalUnit/CN=archiso/name=EasyRSA/emailAddress=jack@yzwang.bsdwhiz.xyz
                serial:E3:6E:E9:5F:18:7D:3C:11

            X509v3 Extended Key Usage: 
                TLS Web Client Authentication
            X509v3 Key Usage: 
                Digital Signature
    Signature Algorithm: sha256WithRSAEncryption
         48:5e:00:74:3b:1b:24:08:12:f7:f4:5e:8e:24:62:30:85:3d:
         c0:34:55:fd:1a:31:93:50:f7:d1:35:c5:70:9e:f1:a4:2c:6b:
         d6:df:84:cb:2d:41:74:38:2c:58:a1:fc:2e:08:5b:b2:2f:c1:
         b9:fe:23:4e:2d:17:ae:4e:23:ed:7b:93:70:1b:a9:e1:c8:af:
         ff:b2:80:e9:57:12:71:aa:01:f0:5f:64:d4:07:f3:e2:5e:0f:
         22:4a:c1:bf:86:d4:68:68:36:9e:c8:69:45:82:42:da:3b:c7:
         bc:a2:ae:b6:c3:07:16:6d:13:f5:fa:dd:5a:b1:ce:9d:85:1b:
         32:d7:44:90:37:ae:fc:f0:0e:ae:1d:01:ce:bf:ba:e2:0f:89:
         a5:76:52:b7:d8:0b:65:f1:8a:18:57:07:1c:c4:c2:5d:f2:df:
         85:4c:19:3a:47:a3:3e:46:17:34:d0:2e:07:74:29:1d:17:72:
         93:fc:3d:52:ab:91:1c:04:bc:91:e8:01:25:e4:90:6a:60:c9:
         71:a2:08:88:8b:8c:31:85:67:07:f4:98:a4:c0:d6:9d:fc:09:
         c5:d5:58:f0:27:80:0c:54:33:de:f9:c8:cb:14:89:24:00:cb:
         f0:46:38:a9:0a:42:b3:43:ec:26:71:ca:fa:a5:05:cb:9f:57:
         3c:d7:e4:bf
-----BEGIN CERTIFICATE-----
MIIFQjCCBCqgAwIBAgIBAjANBgkqhkiG9w0BAQsFADCBrzELMAkGA1UEBhMCVFcx
DzANBgNVBAgTBlRhaXBlaTEVMBMGA1UEBxMMU2FuRnJhbmNpc2NvMQ0wCwYDVQQK
EwROQ1RVMR0wGwYDVQQLExRNeU9yZ2FuaXphdGlvbmFsVW5pdDEQMA4GA1UEAxMH
YXJjaGlzbzEQMA4GA1UEKRMHRWFzeVJTQTEmMCQGCSqGSIb3DQEJARYXamFja0B5
endhbmcuYnNkd2hpei54eXowHhcNMTYwNTMxMjIzMDM3WhcNMjYwNTI5MjIzMDM3
WjCBrjELMAkGA1UEBhMCVFcxDzANBgNVBAgTBlRhaXBlaTEVMBMGA1UEBxMMU2Fu
RnJhbmNpc2NvMQ0wCwYDVQQKEwROQ1RVMR0wGwYDVQQLExRNeU9yZ2FuaXphdGlv
bmFsVW5pdDEPMA0GA1UEAxMGY2xpZW50MRAwDgYDVQQpEwdFYXN5UlNBMSYwJAYJ
KoZIhvcNAQkBFhdqYWNrQHl6d2FuZy5ic2R3aGl6Lnh5ejCCASIwDQYJKoZIhvcN
AQEBBQADggEPADCCAQoCggEBAJcXSKVUwip2rfLwCHQC7sQIm2NCvy6EN48CR1Ke
W5Xbo+Q10qQErNJXD70iMKCxEcFq97cN0LGpbBntrjnxEmAnELIb5DzH5lwGqj1f
N4aBUW/aOTs/dsyGndjc4JL+JVmRo3c54N9dehV4+etzqmy/adINcXQK85QdQr7+
dXkzDiL3vLFyaS9Mr1gBBKxiObwp75swtclKPqruYgrWG58Gw/CkpLbaiduSq5tA
yrphX1PWSEqwpHR5PqF1C2XZ6urQ2ZMP7afqoY46qnQsTrnR//t/Cm7i8n4vuWUR
OZSs/vWdu9yf+17nPCMpQ0YSWPP6mTTYYExpxcBM5X3jH8UCAwEAAaOCAWYwggFi
MAkGA1UdEwQCMAAwLQYJYIZIAYb4QgENBCAWHkVhc3ktUlNBIEdlbmVyYXRlZCBD
ZXJ0aWZpY2F0ZTAdBgNVHQ4EFgQUiM3YctNK20fxTj40z96S/RBWSucwgeQGA1Ud
IwSB3DCB2YAU+0Zj2RiJl8pHxz0unYHItjsegoKhgbWkgbIwga8xCzAJBgNVBAYT
AlRXMQ8wDQYDVQQIEwZUYWlwZWkxFTATBgNVBAcTDFNhbkZyYW5jaXNjbzENMAsG
A1UEChMETkNUVTEdMBsGA1UECxMUTXlPcmdhbml6YXRpb25hbFVuaXQxEDAOBgNV
BAMTB2FyY2hpc28xEDAOBgNVBCkTB0Vhc3lSU0ExJjAkBgkqhkiG9w0BCQEWF2ph
Y2tAeXp3YW5nLmJzZHdoaXoueHl6ggkA427pXxh9PBEwEwYDVR0lBAwwCgYIKwYB
BQUHAwIwCwYDVR0PBAQDAgeAMA0GCSqGSIb3DQEBCwUAA4IBAQBIXgB0OxskCBL3
9F6OJGIwhT3ANFX9GjGTUPfRNcVwnvGkLGvW34TLLUF0OCxYofwuCFuyL8G5/iNO
LReuTiPte5NwG6nhyK//soDpVxJxqgHwX2TUB/PiXg8iSsG/htRoaDaeyGlFgkLa
O8e8oq62wwcWbRP1+t1asc6dhRsy10SQN6788A6uHQHOv7riD4mldlK32Atl8YoY
VwccxMJd8t+FTBk6R6M+Rhc00C4HdCkdF3KT/D1Sq5EcBLyR6AEl5JBqYMlxogiI
i4wxhWcH9JikwNad/AnF1VjwJ4AMVDPe+cjLFIkkAMvwRjipCkKzQ+wmccr6pQXL
n1c81+S/
-----END CERTIFICATE-----
